target datalayout = "e-m:e-p270:32:32-p271:32:32-p272:64:64-i64:64-i128:128-f80:128-n8:16:32:64-S128"
target triple = "x86_64-pc-linux-gnu"

@l_Lean_PrettyPrinter_Delaborator_TopDownAnalyze_isSubstLike___closed__3 = internal global ptr null, align 8
@l_Lean_PrettyPrinter_Delaborator_TopDownAnalyze_isSubstLike___closed__5 = internal global ptr null, align 8

; Function Attrs: inlinehint nounwind uwtable
define internal ptr @lean_box(i64 noundef %0) #0 {
  %2 = alloca i64, align 8
  store i64 %0, ptr %2, align 8, !tbaa !8
  %3 = load i64, ptr %2, align 8, !tbaa !8
  %4 = shl i64 %3, 1
  %5 = or i64 %4, 1
  %6 = inttoptr i64 %5 to ptr
  ret ptr %6
}

; Function Attrs: inlinehint nounwind uwtable
define internal ptr @lean_usize_to_nat(i64 noundef %0) #0 {
  %2 = alloca ptr, align 8
  %3 = alloca i64, align 8
  store i64 %0, ptr %3, align 8, !tbaa !8
  %4 = load i64, ptr %3, align 8, !tbaa !8
  %5 = icmp ule i64 %4, 9223372036854775807
  %6 = zext i1 %5 to i32
  %7 = sext i32 %6 to i64
  %8 = call i64 @llvm.expect.i64(i64 %7, i64 1)
  %9 = icmp ne i64 %8, 0
  br i1 %9, label %10, label %13

10:                                               ; preds = %1
  %11 = load i64, ptr %3, align 8, !tbaa !8
  %12 = call ptr @lean_box(i64 noundef %11)
  store ptr %12, ptr %2, align 8
  br label %16

13:                                               ; preds = %1
  %14 = load i64, ptr %3, align 8, !tbaa !8
  %15 = call ptr @lean_big_usize_to_nat(i64 noundef %14)
  store ptr %15, ptr %2, align 8
  br label %16

16:                                               ; preds = %13, %10
  %17 = load ptr, ptr %2, align 8
  ret ptr %17
}

; Function Attrs: inlinehint nounwind uwtable
define internal ptr @lean_unsigned_to_nat(i32 noundef %0) #0 {
  %2 = alloca i32, align 4
  store i32 %0, ptr %2, align 4, !tbaa !15
  %3 = load i32, ptr %2, align 4, !tbaa !15
  %4 = zext i32 %3 to i64
  %5 = call ptr @lean_usize_to_nat(i64 noundef %4)
  ret ptr %5
}

; Function Attrs: nounwind uwtable
define zeroext i8 @l_Lean_PrettyPrinter_Delaborator_TopDownAnalyze_isSubstLike(ptr noundef %0) #2 {
  %2 = alloca i8, align 1
  %3 = alloca ptr, align 8
  %4 = alloca ptr, align 8
  %5 = alloca ptr, align 8
  %6 = alloca i8, align 1
  %7 = alloca ptr, align 8
  %8 = alloca i8, align 1
  %9 = alloca i32, align 4
  %10 = alloca i8, align 1
  store ptr %0, ptr %3, align 8, !tbaa !10
  br label %11

11:                                               ; preds = %1
  call void @llvm.lifetime.start.p0(i64 8, ptr %4) #7
  call void @llvm.lifetime.start.p0(i64 8, ptr %5) #7
  call void @llvm.lifetime.start.p0(i64 1, ptr %6) #7
  %12 = load ptr, ptr @l_Lean_PrettyPrinter_Delaborator_TopDownAnalyze_isSubstLike___closed__3, align 8, !tbaa !10
  store ptr %12, ptr %4, align 8, !tbaa !10
  %13 = call ptr @lean_unsigned_to_nat(i32 noundef 6)
  store ptr %13, ptr %5, align 8, !tbaa !10
  %14 = load ptr, ptr %3, align 8, !tbaa !10
  %15 = load ptr, ptr %4, align 8, !tbaa !10
  %16 = load ptr, ptr %5, align 8, !tbaa !10
  %17 = call zeroext i8 @l_Lean_Expr_isAppOfArity(ptr noundef %14, ptr noundef %15, ptr noundef %16)
  store i8 %17, ptr %6, align 1, !tbaa !14
  %18 = load i8, ptr %6, align 1, !tbaa !14
  %19 = zext i8 %18 to i32
  %20 = icmp eq i32 %19, 0
  br i1 %20, label %21, label %28

21:                                               ; preds = %11
  call void @llvm.lifetime.start.p0(i64 8, ptr %7) #7
  call void @llvm.lifetime.start.p0(i64 1, ptr %8) #7
  %22 = load ptr, ptr @l_Lean_PrettyPrinter_Delaborator_TopDownAnalyze_isSubstLike___closed__5, align 8, !tbaa !10
  store ptr %22, ptr %7, align 8, !tbaa !10
  %23 = load ptr, ptr %3, align 8, !tbaa !10
  %24 = load ptr, ptr %7, align 8, !tbaa !10
  %25 = load ptr, ptr %5, align 8, !tbaa !10
  %26 = call zeroext i8 @l_Lean_Expr_isAppOfArity(ptr noundef %23, ptr noundef %24, ptr noundef %25)
  store i8 %26, ptr %8, align 1, !tbaa !14
  %27 = load i8, ptr %8, align 1, !tbaa !14
  store i8 %27, ptr %2, align 1
  store i32 1, ptr %9, align 4
  call void @llvm.lifetime.end.p0(i64 1, ptr %8) #7
  call void @llvm.lifetime.end.p0(i64 8, ptr %7) #7
  br label %30

28:                                               ; preds = %11
  call void @llvm.lifetime.start.p0(i64 1, ptr %10) #7
  store i8 1, ptr %10, align 1, !tbaa !14
  %29 = load i8, ptr %10, align 1, !tbaa !14
  store i8 %29, ptr %2, align 1
  store i32 1, ptr %9, align 4
  call void @llvm.lifetime.end.p0(i64 1, ptr %10) #7
  br label %30

30:                                               ; preds = %28, %21
  call void @llvm.lifetime.end.p0(i64 1, ptr %6) #7
  call void @llvm.lifetime.end.p0(i64 8, ptr %5) #7
  call void @llvm.lifetime.end.p0(i64 8, ptr %4) #7
  %31 = load i8, ptr %2, align 1
  ret i8 %31
}