; Function Attrs: nounwind uwtable
define zeroext i8 @l_Lean_PrettyPrinter_Delaborator_TopDownAnalyze_isSubstLike(ptr noundef %0) local_unnamed_addr #1 {
  %2 = load ptr, ptr @l_Lean_PrettyPrinter_Delaborator_TopDownAnalyze_isSubstLike___closed__3, align 8, !tbaa !11
  %3 = tail call zeroext i8 @l_Lean_Expr_isAppOfArity(ptr noundef %0, ptr noundef %2, ptr noundef nonnull inttoptr (i64 13 to ptr)) #7
  %4 = icmp eq i8 %3, 0
  br i1 %4, label %5, label %8

5:                                                ; preds = %1
  %6 = load ptr, ptr @l_Lean_PrettyPrinter_Delaborator_TopDownAnalyze_isSubstLike___closed__5, align 8, !tbaa !11
  %7 = tail call zeroext i8 @l_Lean_Expr_isAppOfArity(ptr noundef %0, ptr noundef %6, ptr noundef nonnull inttoptr (i64 13 to ptr)) #7
  br label %8

8:                                                ; preds = %1, %5
  %.0 = phi i8 [ %7, %5 ], [ 1, %1 ]
  ret i8 %.0
}